target datalayout = "e-m:e-p270:32:32-p271:32:32-p272:64:64-i64:64-i128:128-f80:128-n8:16:32:64-S128"
target triple = "x86_64-pc-linux-gnu"

%struct.BufferUsage = type { i64, i64, i64, i64, i64, i64, i64, i64, i64, i64, %struct.instr_time, %struct.instr_time, %struct.instr_time, %struct.instr_time, %struct.instr_time, %struct.instr_time }
%struct.instr_time = type { i64 }
%struct.StringInfoData = type { ptr, i32, i32, i32 }
%struct.SerializeMetrics = type { i64, %struct.instr_time, %struct.BufferUsage }
%struct._DestReceiver = type { ptr, ptr, ptr, ptr, i32 }
%struct.SerializeDestReceiver = type { %struct._DestReceiver, ptr, i8, ptr, i32, ptr, ptr, %struct.StringInfoData, %struct.SerializeMetrics }

; Function Attrs: nounwind uwtable
define internal void @serializeAnalyzeShutdown(ptr noundef %0) #0 {
  %2 = alloca ptr, align 8
  %3 = alloca ptr, align 8
  store ptr %0, ptr %2, align 8
  call void @llvm.lifetime.start.p0(i64 8, ptr %3) #10
  %4 = load ptr, ptr %2, align 8
  store ptr %4, ptr %3, align 8
  %5 = load ptr, ptr %3, align 8
  %6 = getelementptr inbounds nuw %struct.SerializeDestReceiver, ptr %5, i32 0, i32 5
  %7 = load ptr, ptr %6, align 8
  %8 = icmp ne ptr %7, null
  br i1 %8, label %9, label %13

9:                                                ; preds = %1
  %10 = load ptr, ptr %3, align 8
  %11 = getelementptr inbounds nuw %struct.SerializeDestReceiver, ptr %10, i32 0, i32 5
  %12 = load ptr, ptr %11, align 8
  call void @pfree(ptr noundef %12)
  br label %13

13:                                               ; preds = %9, %1
  %14 = load ptr, ptr %3, align 8
  %15 = getelementptr inbounds nuw %struct.SerializeDestReceiver, ptr %14, i32 0, i32 5
  store ptr null, ptr %15, align 8
  %16 = load ptr, ptr %3, align 8
  %17 = getelementptr inbounds nuw %struct.SerializeDestReceiver, ptr %16, i32 0, i32 7
  %18 = getelementptr inbounds nuw %struct.StringInfoData, ptr %17, i32 0, i32 0
  %19 = load ptr, ptr %18, align 8
  %20 = icmp ne ptr %19, null
  br i1 %20, label %21, label %26

21:                                               ; preds = %13
  %22 = load ptr, ptr %3, align 8
  %23 = getelementptr inbounds nuw %struct.SerializeDestReceiver, ptr %22, i32 0, i32 7
  %24 = getelementptr inbounds nuw %struct.StringInfoData, ptr %23, i32 0, i32 0
  %25 = load ptr, ptr %24, align 8
  call void @pfree(ptr noundef %25)
  br label %26

26:                                               ; preds = %21, %13
  %27 = load ptr, ptr %3, align 8
  %28 = getelementptr inbounds nuw %struct.SerializeDestReceiver, ptr %27, i32 0, i32 7
  %29 = getelementptr inbounds nuw %struct.StringInfoData, ptr %28, i32 0, i32 0
  store ptr null, ptr %29, align 8
  %30 = load ptr, ptr %3, align 8
  %31 = getelementptr inbounds nuw %struct.SerializeDestReceiver, ptr %30, i32 0, i32 6
  %32 = load ptr, ptr %31, align 8
  %33 = icmp ne ptr %32, null
  br i1 %33, label %34, label %38

34:                                               ; preds = %26
  %35 = load ptr, ptr %3, align 8
  %36 = getelementptr inbounds nuw %struct.SerializeDestReceiver, ptr %35, i32 0, i32 6
  %37 = load ptr, ptr %36, align 8
  call void @MemoryContextDelete(ptr noundef %37)
  br label %38

38:                                               ; preds = %34, %26
  %39 = load ptr, ptr %3, align 8
  %40 = getelementptr inbounds nuw %struct.SerializeDestReceiver, ptr %39, i32 0, i32 6
  store ptr null, ptr %40, align 8
  call void @llvm.lifetime.end.p0(i64 8, ptr %3) #10
  ret void
}